target datalayout = "e-m:e-p270:32:32-p271:32:32-p272:64:64-i64:64-i128:128-f80:128-n8:16:32:64-S128"
target triple = "x86_64-pc-linux-gnu"

%struct.BackendGlobalData = type <{ ptr, ptr, i8, i8, i8, i8, i8, i8, i8, i8, i8, [3 x i8], i32, ptr, ptr, ptr, ptr, ptr, ptr, ptr, ptr, ptr, ptr, ptr, ptr, ptr, i32, %struct.jvmtiCapabilities, i8, [3 x i8], %struct.jvmtiEventCallbacks, ptr, ptr, ptr, ptr, ptr, ptr, ptr, i32, [4 x i8], ptr, i64, i32, [4 x i8], ptr, i32, i32, i8, i8, [6 x i8] }>
%struct.jvmtiCapabilities = type { i64, i64 }
%struct.jvmtiEventCallbacks = type { ptr, ptr, ptr, ptr, ptr, ptr, ptr, ptr, ptr, ptr, ptr, ptr, ptr, ptr, ptr, ptr, ptr, ptr, ptr, ptr, ptr, ptr, ptr, ptr, ptr, ptr, ptr, ptr, ptr, ptr, ptr, ptr, ptr, ptr, ptr, ptr, ptr, ptr, ptr }
%struct.InvokeRequest = type { i8, i8, i8, i8, i32, i8, i8, ptr, ptr, ptr, ptr, i32, ptr, %union.jvalue, ptr }
%union.jvalue = type { i64 }

@invokerLock = internal global ptr null, align 8
@gdata = external global ptr, align 8
@.str.1 = private unnamed_addr constant [50 x i8] c"src/jdk.jdwp.agent/share/native/libjdwp/invoker.c\00", align 1
@.str.16 = private unnamed_addr constant [8 x i8] c"request\00", align 1

; Function Attrs: nounwind uwtable
define hidden void @invoker_detach(ptr noundef %0) #0 {
  %2 = alloca ptr, align 8
  store ptr %0, ptr %2, align 8
  br label %3

3:                                                ; preds = %1
  %4 = load ptr, ptr @gdata, align 8
  %5 = icmp ne ptr %4, null
  br i1 %5, label %6, label %16

6:                                                ; preds = %3
  %7 = load ptr, ptr @gdata, align 8
  %8 = getelementptr inbounds %struct.BackendGlobalData, ptr %7, i32 0, i32 3
  %9 = load i8, ptr %8, align 1
  %10 = zext i8 %9 to i32
  %11 = icmp ne i32 %10, 0
  br i1 %11, label %12, label %16

12:                                               ; preds = %6
  %13 = load ptr, ptr %2, align 8
  %14 = icmp ne ptr %13, null
  br i1 %14, label %16, label %15

15:                                               ; preds = %12
  call void @jdiAssertionFailed(ptr noundef @.str.1, i32 noundef 837, ptr noundef @.str.16)
  br label %16

16:                                               ; preds = %15, %12, %6, %3
  br label %17

17:                                               ; preds = %16
  %18 = load ptr, ptr @invokerLock, align 8
  call void @debugMonitorEnter(ptr noundef %18)
  %19 = load ptr, ptr %2, align 8
  %20 = getelementptr inbounds %struct.InvokeRequest, ptr %19, i32 0, i32 3
  store i8 1, ptr %20, align 1
  %21 = load ptr, ptr @invokerLock, align 8
  call void @debugMonitorExit(ptr noundef %21)
  ret void
}