; Function Attrs: nounwind uwtable
define hidden void @invoker_detach(ptr noundef writeonly %0) local_unnamed_addr #0 {
  %2 = load ptr, ptr @gdata, align 8
  %.not = icmp eq ptr %2, null
  br i1 %.not, label %9, label %3

3:                                                ; preds = %1
  %4 = getelementptr inbounds i8, ptr %2, i64 17
  %5 = load i8, ptr %4, align 1
  %6 = icmp eq i8 %5, 0
  %7 = icmp ne ptr %0, null
  %or.cond = or i1 %7, %6
  br i1 %or.cond, label %9, label %8

8:                                                ; preds = %3
  tail call void @jdiAssertionFailed(ptr noundef nonnull @.str.1, i32 noundef 837, ptr noundef nonnull @.str.16) #5
  br label %9

9:                                                ; preds = %1, %3, %8
  %10 = load ptr, ptr @invokerLock, align 8
  tail call void @debugMonitorEnter(ptr noundef %10) #5
  %11 = getelementptr inbounds i8, ptr %0, i64 3
  store i8 1, ptr %11, align 1
  %12 = load ptr, ptr @invokerLock, align 8
  tail call void @debugMonitorExit(ptr noundef %12) #5
  ret void
}